target datalayout = "e-m:e-p270:32:32-p271:32:32-p272:64:64-i64:64-i128:128-f80:128-n8:16:32:64-S128"
target triple = "x86_64-pc-linux-gnu"

%struct.h5tools_str_t = type { ptr, i64, i64 }

@.str = private unnamed_addr constant [3 x i8] c"%s\00", align 1

; Function Attrs: nounwind uwtable
define ptr @h5tools_str_trunc(ptr noundef %0, i64 noundef %1) #0 {
  %3 = alloca ptr, align 8
  %4 = alloca i64, align 8
  store ptr %0, ptr %3, align 8, !tbaa !3
  store i64 %1, ptr %4, align 8, !tbaa !17
  %5 = load i64, ptr %4, align 8, !tbaa !17
  %6 = load ptr, ptr %3, align 8, !tbaa !3
  %7 = getelementptr inbounds nuw %struct.h5tools_str_t, ptr %6, i32 0, i32 1
  %8 = load i64, ptr %7, align 8, !tbaa !13
  %9 = icmp ult i64 %5, %8
  br i1 %9, label %10, label %19

10:                                               ; preds = %2
  %11 = load i64, ptr %4, align 8, !tbaa !17
  %12 = load ptr, ptr %3, align 8, !tbaa !3
  %13 = getelementptr inbounds nuw %struct.h5tools_str_t, ptr %12, i32 0, i32 1
  store i64 %11, ptr %13, align 8, !tbaa !13
  %14 = load ptr, ptr %3, align 8, !tbaa !3
  %15 = getelementptr inbounds nuw %struct.h5tools_str_t, ptr %14, i32 0, i32 0
  %16 = load ptr, ptr %15, align 8, !tbaa !12
  %17 = load i64, ptr %4, align 8, !tbaa !17
  %18 = getelementptr inbounds nuw i8, ptr %16, i64 %17
  store i8 0, ptr %18, align 1, !tbaa !18
  br label %19

19:                                               ; preds = %10, %2
  %20 = load ptr, ptr %3, align 8, !tbaa !3
  %21 = getelementptr inbounds nuw %struct.h5tools_str_t, ptr %20, i32 0, i32 0
  %22 = load ptr, ptr %21, align 8, !tbaa !12
  ret ptr %22
}

; Function Attrs: nounwind uwtable
define ptr @h5tools_str_fmt(ptr noundef %0, i64 noundef %1, ptr noundef %2) #0 {
  %4 = alloca ptr, align 8
  %5 = alloca ptr, align 8
  %6 = alloca i64, align 8
  %7 = alloca ptr, align 8
  %8 = alloca [1024 x i8], align 16
  %9 = alloca ptr, align 8
  %10 = alloca i32, align 4
  %11 = alloca i64, align 8
  store ptr %0, ptr %5, align 8, !tbaa !3
  store i64 %1, ptr %6, align 8, !tbaa !17
  store ptr %2, ptr %7, align 8, !tbaa !14
  call void @llvm.lifetime.start.p0(i64 1024, ptr %8) #12
  call void @llvm.lifetime.start.p0(i64 8, ptr %9) #12
  %12 = getelementptr inbounds [1024 x i8], ptr %8, i64 0, i64 0
  store ptr %12, ptr %9, align 8, !tbaa !14
  %13 = load ptr, ptr %7, align 8, !tbaa !14
  %14 = call i32 @strcmp(ptr noundef %13, ptr noundef @.str) #13
  %15 = icmp ne i32 %14, 0
  br i1 %15, label %20, label %16

16:                                               ; preds = %3
  %17 = load ptr, ptr %5, align 8, !tbaa !3
  %18 = getelementptr inbounds nuw %struct.h5tools_str_t, ptr %17, i32 0, i32 0
  %19 = load ptr, ptr %18, align 8, !tbaa !12
  store ptr %19, ptr %4, align 8
  store i32 1, ptr %10, align 4
  br label %73

20:                                               ; preds = %3
  %21 = load ptr, ptr %7, align 8, !tbaa !14
  %22 = call ptr @strchr(ptr noundef %21, i32 noundef 37) #13
  %23 = icmp ne ptr %22, null
  br i1 %23, label %24, label %56

24:                                               ; preds = %20
  call void @llvm.lifetime.start.p0(i64 8, ptr %11) #12
  store i64 1024, ptr %11, align 8, !tbaa !17
  %25 = load ptr, ptr %5, align 8, !tbaa !3
  %26 = getelementptr inbounds nuw %struct.h5tools_str_t, ptr %25, i32 0, i32 1
  %27 = load i64, ptr %26, align 8, !tbaa !13
  %28 = load i64, ptr %6, align 8, !tbaa !17
  %29 = sub i64 %27, %28
  %30 = add i64 %29, 1
  %31 = load i64, ptr %11, align 8, !tbaa !17
  %32 = icmp ugt i64 %30, %31
  br i1 %32, label %33, label %42

33:                                               ; preds = %24
  %34 = load ptr, ptr %5, align 8, !tbaa !3
  %35 = getelementptr inbounds nuw %struct.h5tools_str_t, ptr %34, i32 0, i32 1
  %36 = load i64, ptr %35, align 8, !tbaa !13
  %37 = load i64, ptr %6, align 8, !tbaa !17
  %38 = sub i64 %36, %37
  %39 = add i64 %38, 1
  store i64 %39, ptr %11, align 8, !tbaa !17
  %40 = load i64, ptr %11, align 8, !tbaa !17
  %41 = call noalias ptr @malloc(i64 noundef %40) #15
  store ptr %41, ptr %9, align 8, !tbaa !14
  br label %42

42:                                               ; preds = %33, %24
  %43 = load ptr, ptr %9, align 8, !tbaa !14
  %44 = load ptr, ptr %5, align 8, !tbaa !3
  %45 = getelementptr inbounds nuw %struct.h5tools_str_t, ptr %44, i32 0, i32 0
  %46 = load ptr, ptr %45, align 8, !tbaa !12
  %47 = load i64, ptr %6, align 8, !tbaa !17
  %48 = getelementptr inbounds nuw i8, ptr %46, i64 %47
  %49 = load i64, ptr %11, align 8, !tbaa !17
  %50 = sub i64 %49, 1
  %51 = call ptr @strncpy(ptr noundef %43, ptr noundef %48, i64 noundef %50) #12
  %52 = load ptr, ptr %9, align 8, !tbaa !14
  %53 = load i64, ptr %11, align 8, !tbaa !17
  %54 = sub i64 %53, 1
  %55 = getelementptr inbounds nuw i8, ptr %52, i64 %54
  store i8 0, ptr %55, align 1, !tbaa !18
  call void @llvm.lifetime.end.p0(i64 8, ptr %11) #12
  br label %56

56:                                               ; preds = %42, %20
  %57 = load ptr, ptr %5, align 8, !tbaa !3
  %58 = load i64, ptr %6, align 8, !tbaa !17
  %59 = call ptr @h5tools_str_trunc(ptr noundef %57, i64 noundef %58)
  %60 = load ptr, ptr %5, align 8, !tbaa !3
  %61 = load ptr, ptr %7, align 8, !tbaa !14
  %62 = load ptr, ptr %9, align 8, !tbaa !14
  %63 = call ptr (ptr, ptr, ...) @h5tools_str_append(ptr noundef %60, ptr noundef %61, ptr noundef %62)
  %64 = load ptr, ptr %9, align 8, !tbaa !14
  %65 = getelementptr inbounds [1024 x i8], ptr %8, i64 0, i64 0
  %66 = icmp ne ptr %64, %65
  br i1 %66, label %67, label %69

67:                                               ; preds = %56
  %68 = load ptr, ptr %9, align 8, !tbaa !14
  call void @free(ptr noundef %68) #12
  br label %69

69:                                               ; preds = %67, %56
  %70 = load ptr, ptr %5, align 8, !tbaa !3
  %71 = getelementptr inbounds nuw %struct.h5tools_str_t, ptr %70, i32 0, i32 0
  %72 = load ptr, ptr %71, align 8, !tbaa !12
  store ptr %72, ptr %4, align 8
  store i32 1, ptr %10, align 4
  br label %73

73:                                               ; preds = %69, %16
  call void @llvm.lifetime.end.p0(i64 8, ptr %9) #12
  call void @llvm.lifetime.end.p0(i64 1024, ptr %8) #12
  %74 = load ptr, ptr %4, align 8
  ret ptr %74
}