; Function Attrs: nounwind uwtable
define ptr @h5tools_str_fmt(ptr noundef captures(none) %0, i64 noundef %1, ptr noundef readonly %2) local_unnamed_addr #4 {
sub_0:
  %3 = alloca [1024 x i8], align 16
  call void @llvm.lifetime.start.p0(i64 1024, ptr nonnull %3) #21
  %4 = load i8, ptr %2, align 1
  %.not28 = icmp eq i8 %4, 37
  br i1 %.not28, label %sub_1, label %.tail.thread

sub_1:                                            ; preds = %sub_0
  %5 = getelementptr inbounds nuw i8, ptr %2, i64 1
  %6 = load i8, ptr %5, align 1
  %.not29 = icmp eq i8 %6, 115
  br i1 %.not29, label %.tail, label %.tail.thread

.tail:                                            ; preds = %sub_1
  %7 = getelementptr inbounds nuw i8, ptr %2, i64 2
  %8 = load i8, ptr %7, align 1
  %9 = icmp eq i8 %8, 0
  br i1 %9, label %29, label %.tail.thread

.tail.thread:                                     ; preds = %sub_1, %sub_0, %.tail
  %10 = tail call ptr @strchr(ptr noundef nonnull dereferenceable(1) %2, i32 noundef 37) #24
  %.not26 = icmp eq ptr %10, null
  %.phi.trans.insert = getelementptr inbounds nuw i8, ptr %0, i64 8
  %.pre = load i64, ptr %.phi.trans.insert, align 8, !tbaa !11
  br i1 %.not26, label %._crit_edge, label %11

11:                                               ; preds = %.tail.thread
  %12 = sub i64 %.pre, %1
  %13 = add i64 %12, 1
  %14 = icmp ugt i64 %13, 1024
  br i1 %14, label %15, label %17

15:                                               ; preds = %11
  %16 = tail call noalias ptr @malloc(i64 noundef %13) #22
  br label %17

17:                                               ; preds = %15, %11
  %.1 = phi ptr [ %16, %15 ], [ %3, %11 ]
  %.0 = phi i64 [ %12, %15 ], [ 1023, %11 ]
  %18 = load ptr, ptr %0, align 8, !tbaa !10
  %19 = getelementptr inbounds nuw i8, ptr %18, i64 %1
  %20 = call ptr @strncpy(ptr noundef %.1, ptr noundef %19, i64 noundef %.0) #21
  %21 = getelementptr inbounds nuw i8, ptr %.1, i64 %.0
  store i8 0, ptr %21, align 1, !tbaa !12
  br label %._crit_edge

._crit_edge:                                      ; preds = %.tail.thread, %17
  %.023 = phi ptr [ %.1, %17 ], [ %3, %.tail.thread ]
  %22 = icmp ult i64 %1, %.pre
  br i1 %22, label %23, label %h5tools_str_trunc.exit

23:                                               ; preds = %._crit_edge
  %24 = getelementptr inbounds nuw i8, ptr %0, i64 8
  store i64 %1, ptr %24, align 8, !tbaa !11
  %25 = load ptr, ptr %0, align 8, !tbaa !10
  %26 = getelementptr inbounds nuw i8, ptr %25, i64 %1
  store i8 0, ptr %26, align 1, !tbaa !12
  br label %h5tools_str_trunc.exit

h5tools_str_trunc.exit:                           ; preds = %._crit_edge, %23
  %27 = call ptr (ptr, ptr, ...) @h5tools_str_append(ptr noundef nonnull %0, ptr noundef nonnull %2, ptr noundef nonnull %.023)
  %.not27 = icmp eq ptr %.023, %3
  br i1 %.not27, label %29, label %28

28:                                               ; preds = %h5tools_str_trunc.exit
  call void @free(ptr noundef nonnull %.023) #21
  br label %29

29:                                               ; preds = %h5tools_str_trunc.exit, %28, %.tail
  %.024 = load ptr, ptr %0, align 8, !tbaa !10
  call void @llvm.lifetime.end.p0(i64 1024, ptr nonnull %3) #21
  ret ptr %.024
}